target datalayout = "e-m:e-p270:32:32-p271:32:32-p272:64:64-i64:64-i128:128-f80:128-n8:16:32:64-S128"
target triple = "x86_64-pc-linux-gnu"

%struct._dumpableObject = type { i32, %struct.CatalogId, i32, ptr, ptr, i32, i32, i32, i8, i8, ptr, i32, i32 }
%struct.CatalogId = type { i32, i32 }

; Function Attrs: nounwind uwtable
define internal i32 @findLoop(ptr noundef %0, i32 noundef %1, ptr noundef %2, ptr noundef %3, ptr noundef %4, i32 noundef %5) #0 {
  %7 = alloca i32, align 4
  %8 = alloca ptr, align 8
  %9 = alloca i32, align 4
  %10 = alloca ptr, align 8
  %11 = alloca ptr, align 8
  %12 = alloca ptr, align 8
  %13 = alloca i32, align 4
  %14 = alloca i32, align 4
  %15 = alloca i32, align 4
  %16 = alloca ptr, align 8
  %17 = alloca i32, align 4
  store ptr %0, ptr %8, align 8
  store i32 %1, ptr %9, align 4
  store ptr %2, ptr %10, align 8
  store ptr %3, ptr %11, align 8
  store ptr %4, ptr %12, align 8
  store i32 %5, ptr %13, align 4
  call void @llvm.lifetime.start.p0(i64 4, ptr %14) #8
  %18 = load ptr, ptr %10, align 8
  %19 = load ptr, ptr %8, align 8
  %20 = getelementptr inbounds nuw %struct._dumpableObject, ptr %19, i32 0, i32 2
  %21 = load i32, ptr %20, align 4
  %22 = sext i32 %21 to i64
  %23 = getelementptr inbounds i8, ptr %18, i64 %22
  %24 = load i8, ptr %23, align 1, !range !15, !noundef !16
  %25 = trunc i8 %24 to i1
  br i1 %25, label %26, label %27

26:                                               ; preds = %6
  store i32 0, ptr %7, align 4
  store i32 1, ptr %15, align 4
  br label %131

27:                                               ; preds = %6
  %28 = load ptr, ptr %11, align 8
  %29 = load ptr, ptr %8, align 8
  %30 = getelementptr inbounds nuw %struct._dumpableObject, ptr %29, i32 0, i32 2
  %31 = load i32, ptr %30, align 4
  %32 = sext i32 %31 to i64
  %33 = getelementptr inbounds i32, ptr %28, i64 %32
  %34 = load i32, ptr %33, align 4
  %35 = load i32, ptr %9, align 4
  %36 = icmp eq i32 %34, %35
  br i1 %36, label %37, label %38

37:                                               ; preds = %27
  store i32 0, ptr %7, align 4
  store i32 1, ptr %15, align 4
  br label %131

38:                                               ; preds = %27
  store i32 0, ptr %14, align 4
  br label %39

39:                                               ; preds = %53, %38
  %40 = load i32, ptr %14, align 4
  %41 = load i32, ptr %13, align 4
  %42 = icmp slt i32 %40, %41
  br i1 %42, label %43, label %56

43:                                               ; preds = %39
  %44 = load ptr, ptr %12, align 8
  %45 = load i32, ptr %14, align 4
  %46 = sext i32 %45 to i64
  %47 = getelementptr inbounds ptr, ptr %44, i64 %46
  %48 = load ptr, ptr %47, align 8
  %49 = load ptr, ptr %8, align 8
  %50 = icmp eq ptr %48, %49
  br i1 %50, label %51, label %52

51:                                               ; preds = %43
  store i32 0, ptr %7, align 4
  store i32 1, ptr %15, align 4
  br label %131

52:                                               ; preds = %43
  br label %53

53:                                               ; preds = %52
  %54 = load i32, ptr %14, align 4
  %55 = add i32 %54, 1
  store i32 %55, ptr %14, align 4
  br label %39, !llvm.loop !17

56:                                               ; preds = %39
  %57 = load ptr, ptr %8, align 8
  %58 = load ptr, ptr %12, align 8
  %59 = load i32, ptr %13, align 4
  %60 = add i32 %59, 1
  store i32 %60, ptr %13, align 4
  %61 = sext i32 %59 to i64
  %62 = getelementptr inbounds ptr, ptr %58, i64 %61
  store ptr %57, ptr %62, align 8
  store i32 0, ptr %14, align 4
  br label %63

63:                                               ; preds = %82, %56
  %64 = load i32, ptr %14, align 4
  %65 = load ptr, ptr %8, align 8
  %66 = getelementptr inbounds nuw %struct._dumpableObject, ptr %65, i32 0, i32 11
  %67 = load i32, ptr %66, align 8
  %68 = icmp slt i32 %64, %67
  br i1 %68, label %69, label %85

69:                                               ; preds = %63
  %70 = load ptr, ptr %8, align 8
  %71 = getelementptr inbounds nuw %struct._dumpableObject, ptr %70, i32 0, i32 10
  %72 = load ptr, ptr %71, align 8
  %73 = load i32, ptr %14, align 4
  %74 = sext i32 %73 to i64
  %75 = getelementptr inbounds i32, ptr %72, i64 %74
  %76 = load i32, ptr %75, align 4
  %77 = load i32, ptr %9, align 4
  %78 = icmp eq i32 %76, %77
  br i1 %78, label %79, label %81

79:                                               ; preds = %69
  %80 = load i32, ptr %13, align 4
  store i32 %80, ptr %7, align 4
  store i32 1, ptr %15, align 4
  br label %131

81:                                               ; preds = %69
  br label %82

82:                                               ; preds = %81
  %83 = load i32, ptr %14, align 4
  %84 = add i32 %83, 1
  store i32 %84, ptr %14, align 4
  br label %63, !llvm.loop !18

85:                                               ; preds = %63
  store i32 0, ptr %14, align 4
  br label %86

86:                                               ; preds = %120, %85
  %87 = load i32, ptr %14, align 4
  %88 = load ptr, ptr %8, align 8
  %89 = getelementptr inbounds nuw %struct._dumpableObject, ptr %88, i32 0, i32 11
  %90 = load i32, ptr %89, align 8
  %91 = icmp slt i32 %87, %90
  br i1 %91, label %92, label %123

92:                                               ; preds = %86
  call void @llvm.lifetime.start.p0(i64 8, ptr %16) #8
  %93 = load ptr, ptr %8, align 8
  %94 = getelementptr inbounds nuw %struct._dumpableObject, ptr %93, i32 0, i32 10
  %95 = load ptr, ptr %94, align 8
  %96 = load i32, ptr %14, align 4
  %97 = sext i32 %96 to i64
  %98 = getelementptr inbounds i32, ptr %95, i64 %97
  %99 = load i32, ptr %98, align 4
  %100 = call ptr @findObjectByDumpId(i32 noundef %99)
  store ptr %100, ptr %16, align 8
  call void @llvm.lifetime.start.p0(i64 4, ptr %17) #8
  %101 = load ptr, ptr %16, align 8
  %102 = icmp ne ptr %101, null
  br i1 %102, label %104, label %103

103:                                              ; preds = %92
  store i32 10, ptr %15, align 4
  br label %117

104:                                              ; preds = %92
  %105 = load ptr, ptr %16, align 8
  %106 = load i32, ptr %9, align 4
  %107 = load ptr, ptr %10, align 8
  %108 = load ptr, ptr %11, align 8
  %109 = load ptr, ptr %12, align 8
  %110 = load i32, ptr %13, align 4
  %111 = call i32 @findLoop(ptr noundef %105, i32 noundef %106, ptr noundef %107, ptr noundef %108, ptr noundef %109, i32 noundef %110)
  store i32 %111, ptr %17, align 4
  %112 = load i32, ptr %17, align 4
  %113 = icmp sgt i32 %112, 0
  br i1 %113, label %114, label %116

114:                                              ; preds = %104
  %115 = load i32, ptr %17, align 4
  store i32 %115, ptr %7, align 4
  store i32 1, ptr %15, align 4
  br label %117

116:                                              ; preds = %104
  store i32 0, ptr %15, align 4
  br label %117

117:                                              ; preds = %116, %114, %103
  call void @llvm.lifetime.end.p0(i64 4, ptr %17) #8
  call void @llvm.lifetime.end.p0(i64 8, ptr %16) #8
  %118 = load i32, ptr %15, align 4
  switch i32 %118, label %131 [
    i32 0, label %119
    i32 10, label %120
  ]

119:                                              ; preds = %117
  br label %120

120:                                              ; preds = %119, %117
  %121 = load i32, ptr %14, align 4
  %122 = add i32 %121, 1
  store i32 %122, ptr %14, align 4
  br label %86, !llvm.loop !19

123:                                              ; preds = %86
  %124 = load i32, ptr %9, align 4
  %125 = load ptr, ptr %11, align 8
  %126 = load ptr, ptr %8, align 8
  %127 = getelementptr inbounds nuw %struct._dumpableObject, ptr %126, i32 0, i32 2
  %128 = load i32, ptr %127, align 4
  %129 = sext i32 %128 to i64
  %130 = getelementptr inbounds i32, ptr %125, i64 %129
  store i32 %124, ptr %130, align 4
  store i32 0, ptr %7, align 4
  store i32 1, ptr %15, align 4
  br label %131

131:                                              ; preds = %123, %117, %79, %51, %37, %26
  call void @llvm.lifetime.end.p0(i64 4, ptr %14) #8
  %132 = load i32, ptr %7, align 4
  ret i32 %132
}