; Function Attrs: nounwind uwtable
define internal fastcc i32 @findLoop(ptr noundef %0, i32 noundef %1, ptr noundef readonly captures(none) %2, ptr noundef captures(none) %3, ptr noundef captures(none) %4, i32 noundef %5) unnamed_addr #0 {
  %7 = getelementptr inbounds nuw i8, ptr %0, i64 12
  %8 = load i32, ptr %7, align 4
  %9 = sext i32 %8 to i64
  %10 = getelementptr inbounds i8, ptr %2, i64 %9
  %11 = load i8, ptr %10, align 1, !range !12, !noundef !13
  %12 = trunc nuw i8 %11 to i1
  br i1 %12, label %.loopexit, label %13

13:                                               ; preds = %6
  %14 = getelementptr inbounds i32, ptr %3, i64 %9
  %15 = load i32, ptr %14, align 4
  %16 = icmp eq i32 %15, %1
  br i1 %16, label %.loopexit, label %.preheader51

.preheader51:                                     ; preds = %13
  %17 = icmp sgt i32 %5, 0
  br i1 %17, label %.lr.ph.preheader, label %._crit_edge

.lr.ph.preheader:                                 ; preds = %.preheader51
  %wide.trip.count = zext nneg i32 %5 to i64
  br label %.lr.ph

18:                                               ; preds = %.lr.ph
  %indvars.iv.next = add nuw nsw i64 %indvars.iv, 1
  %exitcond.not = icmp eq i64 %indvars.iv.next, %wide.trip.count
  br i1 %exitcond.not, label %._crit_edge, label %.lr.ph, !llvm.loop !32

.lr.ph:                                           ; preds = %.lr.ph.preheader, %18
  %indvars.iv = phi i64 [ 0, %.lr.ph.preheader ], [ %indvars.iv.next, %18 ]
  %19 = getelementptr inbounds nuw ptr, ptr %4, i64 %indvars.iv
  %20 = load ptr, ptr %19, align 8
  %21 = icmp eq ptr %20, %0
  br i1 %21, label %.loopexit, label %18

._crit_edge:                                      ; preds = %18, %.preheader51
  %22 = add i32 %5, 1
  %23 = sext i32 %5 to i64
  %24 = getelementptr inbounds ptr, ptr %4, i64 %23
  store ptr %0, ptr %24, align 8
  %25 = getelementptr inbounds nuw i8, ptr %0, i64 56
  %26 = load i32, ptr %25, align 8
  %27 = icmp sgt i32 %26, 0
  br i1 %27, label %.lr.ph58, label %._crit_edge61

.lr.ph58:                                         ; preds = %._crit_edge
  %28 = getelementptr inbounds nuw i8, ptr %0, i64 48
  %29 = load ptr, ptr %28, align 8
  %wide.trip.count68 = zext nneg i32 %26 to i64
  br label %32

30:                                               ; preds = %32
  %indvars.iv.next66 = add nuw nsw i64 %indvars.iv65, 1
  %exitcond69.not = icmp eq i64 %indvars.iv.next66, %wide.trip.count68
  br i1 %exitcond69.not, label %.lr.ph60, label %32, !llvm.loop !33

.lr.ph60:                                         ; preds = %30
  %31 = getelementptr inbounds nuw i8, ptr %0, i64 48
  br label %36

32:                                               ; preds = %.lr.ph58, %30
  %indvars.iv65 = phi i64 [ 0, %.lr.ph58 ], [ %indvars.iv.next66, %30 ]
  %33 = getelementptr inbounds nuw i32, ptr %29, i64 %indvars.iv65
  %34 = load i32, ptr %33, align 4
  %35 = icmp eq i32 %34, %1
  br i1 %35, label %.loopexit, label %30

36:                                               ; preds = %.lr.ph60, %44
  %indvars.iv70 = phi i64 [ 0, %.lr.ph60 ], [ %indvars.iv.next71, %44 ]
  %37 = load ptr, ptr %31, align 8
  %38 = getelementptr inbounds nuw i32, ptr %37, i64 %indvars.iv70
  %39 = load i32, ptr %38, align 4
  %40 = tail call ptr @findObjectByDumpId(i32 noundef %39) #9
  %.not = icmp eq ptr %40, null
  br i1 %.not, label %44, label %41

41:                                               ; preds = %36
  %42 = tail call fastcc i32 @findLoop(ptr noundef nonnull %40, i32 noundef %1, ptr noundef %2, ptr noundef %3, ptr noundef %4, i32 noundef %22)
  %43 = icmp sgt i32 %42, 0
  br i1 %43, label %.loopexit, label %44

44:                                               ; preds = %36, %41
  %indvars.iv.next71 = add nuw nsw i64 %indvars.iv70, 1
  %45 = load i32, ptr %25, align 8
  %46 = sext i32 %45 to i64
  %47 = icmp slt i64 %indvars.iv.next71, %46
  br i1 %47, label %36, label %._crit_edge61, !llvm.loop !34

._crit_edge61:                                    ; preds = %44, %._crit_edge
  %48 = load i32, ptr %7, align 4
  %49 = sext i32 %48 to i64
  %50 = getelementptr inbounds i32, ptr %3, i64 %49
  store i32 %1, ptr %50, align 4
  br label %.loopexit

.loopexit:                                        ; preds = %.lr.ph, %32, %41, %13, %6, %._crit_edge61
  %.0 = phi i32 [ 0, %._crit_edge61 ], [ 0, %6 ], [ 0, %13 ], [ %42, %41 ], [ %22, %32 ], [ 0, %.lr.ph ]
  ret i32 %.0
}